
X10IF.elf:     file format elf32-avr

Sections:
Idx Name          Size      VMA       LMA       File off  Algn
  0 .text         000005e2  00000000  00000000  00000094  2**1
                  CONTENTS, ALLOC, LOAD, READONLY, CODE
  1 .data         0000000a  00800060  000005e2  00000676  2**0
                  CONTENTS, ALLOC, LOAD, DATA
  2 .bss          00000081  0080006a  0080006a  00000680  2**0
                  ALLOC
  3 .stab         000006cc  00000000  00000000  00000680  2**2
                  CONTENTS, READONLY, DEBUGGING
  4 .stabstr      00000097  00000000  00000000  00000d4c  2**0
                  CONTENTS, READONLY, DEBUGGING
  5 .comment      0000002f  00000000  00000000  00000de3  2**0
                  CONTENTS, READONLY

Disassembly of section .text:

00000000 <__vectors>:
   0:	0c 94 2d 00 	jmp	0x5a	; 0x5a <__dtors_end>
   4:	0c 94 7f 01 	jmp	0x2fe	; 0x2fe <__vector_1>
   8:	0c 94 55 00 	jmp	0xaa	; 0xaa <__bad_interrupt>
   c:	0c 94 55 00 	jmp	0xaa	; 0xaa <__bad_interrupt>
  10:	0c 94 55 00 	jmp	0xaa	; 0xaa <__bad_interrupt>
  14:	0c 94 55 00 	jmp	0xaa	; 0xaa <__bad_interrupt>
  18:	0c 94 55 00 	jmp	0xaa	; 0xaa <__bad_interrupt>
  1c:	0c 94 55 00 	jmp	0xaa	; 0xaa <__bad_interrupt>
  20:	0c 94 55 00 	jmp	0xaa	; 0xaa <__bad_interrupt>
  24:	0c 94 55 00 	jmp	0xaa	; 0xaa <__bad_interrupt>
  28:	0c 94 55 00 	jmp	0xaa	; 0xaa <__bad_interrupt>
  2c:	0c 94 55 00 	jmp	0xaa	; 0xaa <__bad_interrupt>
  30:	0c 94 55 00 	jmp	0xaa	; 0xaa <__bad_interrupt>
  34:	0c 94 b7 00 	jmp	0x16e	; 0x16e <__vector_13>
  38:	0c 94 55 00 	jmp	0xaa	; 0xaa <__bad_interrupt>
  3c:	0c 94 55 00 	jmp	0xaa	; 0xaa <__bad_interrupt>
  40:	0c 94 55 00 	jmp	0xaa	; 0xaa <__bad_interrupt>
  44:	0c 94 55 00 	jmp	0xaa	; 0xaa <__bad_interrupt>
  48:	0c 94 55 00 	jmp	0xaa	; 0xaa <__bad_interrupt>
  4c:	0c 94 55 00 	jmp	0xaa	; 0xaa <__bad_interrupt>
  50:	0c 94 55 00 	jmp	0xaa	; 0xaa <__bad_interrupt>

00000054 <__ctors_start>:
  54:	01 01       	movw	r0, r2
  56:	ac 02       	muls	r26, r28

00000058 <__ctors_end>:
  58:	0a 01       	movw	r0, r20

0000005a <__dtors_end>:
  5a:	11 24       	eor	r1, r1
  5c:	1f be       	out	0x3f, r1	; 63
  5e:	cf e5       	ldi	r28, 0x5F	; 95
  60:	d8 e0       	ldi	r29, 0x08	; 8
  62:	de bf       	out	0x3e, r29	; 62
  64:	cd bf       	out	0x3d, r28	; 61

00000066 <__do_copy_data>:
  66:	10 e0       	ldi	r17, 0x00	; 0
  68:	a0 e6       	ldi	r26, 0x60	; 96
  6a:	b0 e0       	ldi	r27, 0x00	; 0
  6c:	e2 ee       	ldi	r30, 0xE2	; 226
  6e:	f5 e0       	ldi	r31, 0x05	; 5
  70:	02 c0       	rjmp	.+4      	; 0x76 <__do_copy_data+0x10>
  72:	05 90       	lpm	r0, Z+
  74:	0d 92       	st	X+, r0
  76:	aa 36       	cpi	r26, 0x6A	; 106
  78:	b1 07       	cpc	r27, r17
  7a:	d9 f7       	brne	.-10     	; 0x72 <__do_copy_data+0xc>

0000007c <__do_clear_bss>:
  7c:	20 e0       	ldi	r18, 0x00	; 0
  7e:	aa e6       	ldi	r26, 0x6A	; 106
  80:	b0 e0       	ldi	r27, 0x00	; 0
  82:	01 c0       	rjmp	.+2      	; 0x86 <.do_clear_bss_start>

00000084 <.do_clear_bss_loop>:
  84:	1d 92       	st	X+, r1

00000086 <.do_clear_bss_start>:
  86:	ab 3e       	cpi	r26, 0xEB	; 235
  88:	b2 07       	cpc	r27, r18
  8a:	e1 f7       	brne	.-8      	; 0x84 <.do_clear_bss_loop>

0000008c <__do_global_ctors>:
  8c:	10 e0       	ldi	r17, 0x00	; 0
  8e:	c8 e5       	ldi	r28, 0x58	; 88
  90:	d0 e0       	ldi	r29, 0x00	; 0
  92:	04 c0       	rjmp	.+8      	; 0x9c <__do_global_ctors+0x10>
  94:	22 97       	sbiw	r28, 0x02	; 2
  96:	fe 01       	movw	r30, r28
  98:	0e 94 e0 02 	call	0x5c0	; 0x5c0 <__tablejump__>
  9c:	c4 35       	cpi	r28, 0x54	; 84
  9e:	d1 07       	cpc	r29, r17
  a0:	c9 f7       	brne	.-14     	; 0x94 <__do_global_ctors+0x8>
  a2:	0e 94 0c 01 	call	0x218	; 0x218 <main>
  a6:	0c 94 e4 02 	jmp	0x5c8	; 0x5c8 <__do_global_dtors>

000000aa <__bad_interrupt>:
  aa:	0c 94 00 00 	jmp	0	; 0x0 <__vectors>

000000ae <_ZN10CircBufferC1Ev>:
  ae:	fc 01       	movw	r30, r24
  b0:	10 82       	st	Z, r1
  b2:	11 82       	std	Z+1, r1	; 0x01
  b4:	20 e0       	ldi	r18, 0x00	; 0
  b6:	30 e0       	ldi	r19, 0x00	; 0
  b8:	fc 01       	movw	r30, r24
  ba:	e2 0f       	add	r30, r18
  bc:	f3 1f       	adc	r31, r19
  be:	12 82       	std	Z+2, r1	; 0x02
  c0:	2f 5f       	subi	r18, 0xFF	; 255
  c2:	3f 4f       	sbci	r19, 0xFF	; 255
  c4:	24 37       	cpi	r18, 0x74	; 116
  c6:	31 05       	cpc	r19, r1
  c8:	b9 f7       	brne	.-18     	; 0xb8 <_ZN10CircBufferC1Ev+0xa>
  ca:	08 95       	ret

000000cc <_ZN10CircBuffer6insertEPc>:
  cc:	fc 01       	movw	r30, r24
  ce:	80 81       	ld	r24, Z
  d0:	db 01       	movw	r26, r22
  d2:	9c 91       	ld	r25, X
  d4:	df 01       	movw	r26, r30
  d6:	a8 0f       	add	r26, r24
  d8:	b1 1d       	adc	r27, r1
  da:	12 96       	adiw	r26, 0x02	; 2
  dc:	9c 93       	st	X, r25
  de:	8f 5f       	subi	r24, 0xFF	; 255
  e0:	64 e7       	ldi	r22, 0x74	; 116
  e2:	0e 94 b0 02 	call	0x560	; 0x560 <__udivmodqi4>
  e6:	90 83       	st	Z, r25
  e8:	cf 01       	movw	r24, r30
  ea:	08 95       	ret

000000ec <_ZN10CircBuffer3getEv>:
  ec:	fc 01       	movw	r30, r24
  ee:	91 81       	ldd	r25, Z+1	; 0x01
  f0:	df 01       	movw	r26, r30
  f2:	a9 0f       	add	r26, r25
  f4:	b1 1d       	adc	r27, r1
  f6:	12 96       	adiw	r26, 0x02	; 2
  f8:	2c 91       	ld	r18, X
  fa:	89 2f       	mov	r24, r25
  fc:	8f 5f       	subi	r24, 0xFF	; 255
  fe:	64 e7       	ldi	r22, 0x74	; 116
 100:	0e 94 b0 02 	call	0x560	; 0x560 <__udivmodqi4>
 104:	91 83       	std	Z+1, r25	; 0x01
 106:	82 2f       	mov	r24, r18
 108:	08 95       	ret

0000010a <_ZN4UARTC1Emh>:
 10a:	db 01       	movw	r26, r22
 10c:	ca 01       	movw	r24, r20
 10e:	8e 56       	subi	r24, 0x6E	; 110
 110:	91 09       	sbc	r25, r1
 112:	a1 09       	sbc	r26, r1
 114:	b1 09       	sbc	r27, r1
 116:	83 39       	cpi	r24, 0x93	; 147
 118:	91 4c       	sbci	r25, 0xC1	; 193
 11a:	a1 40       	sbci	r26, 0x01	; 1
 11c:	b1 05       	cpc	r27, r1
 11e:	10 f5       	brcc	.+68     	; 0x164 <_ZN4UARTC1Emh+0x5a>
 120:	25 50       	subi	r18, 0x05	; 5
 122:	25 30       	cpi	r18, 0x05	; 5
 124:	f8 f4       	brcc	.+62     	; 0x164 <_ZN4UARTC1Emh+0x5a>
 126:	9a 01       	movw	r18, r20
 128:	ab 01       	movw	r20, r22
 12a:	84 e0       	ldi	r24, 0x04	; 4
 12c:	22 0f       	add	r18, r18
 12e:	33 1f       	adc	r19, r19
 130:	44 1f       	adc	r20, r20
 132:	55 1f       	adc	r21, r21
 134:	8a 95       	dec	r24
 136:	d1 f7       	brne	.-12     	; 0x12c <_ZN4UARTC1Emh+0x22>
 138:	60 e0       	ldi	r22, 0x00	; 0
 13a:	70 e4       	ldi	r23, 0x40	; 64
 13c:	88 e3       	ldi	r24, 0x38	; 56
 13e:	90 e0       	ldi	r25, 0x00	; 0
 140:	0e 94 bc 02 	call	0x578	; 0x578 <__udivmodsi4>
 144:	21 50       	subi	r18, 0x01	; 1
 146:	31 09       	sbc	r19, r1
 148:	41 09       	sbc	r20, r1
 14a:	51 09       	sbc	r21, r1
 14c:	bb 27       	eor	r27, r27
 14e:	57 fd       	sbrc	r21, 7
 150:	ba 95       	dec	r27
 152:	a5 2f       	mov	r26, r21
 154:	94 2f       	mov	r25, r20
 156:	83 2f       	mov	r24, r19
 158:	80 bd       	out	0x20, r24	; 32
 15a:	29 b9       	out	0x09, r18	; 9
 15c:	8c e9       	ldi	r24, 0x9C	; 156
 15e:	8a b9       	out	0x0a, r24	; 10
 160:	86 e8       	ldi	r24, 0x86	; 134
 162:	80 bd       	out	0x20, r24	; 32
 164:	08 95       	ret

00000166 <_ZN4UART8sendCharEc>:
 166:	5d 9b       	sbis	0x0b, 5	; 11
 168:	fe cf       	rjmp	.-4      	; 0x166 <_ZN4UART8sendCharEc>
 16a:	6c b9       	out	0x0c, r22	; 12
 16c:	08 95       	ret

0000016e <__vector_13>:
 16e:	1f 92       	push	r1
 170:	0f 92       	push	r0
 172:	0f b6       	in	r0, 0x3f	; 63
 174:	0f 92       	push	r0
 176:	11 24       	eor	r1, r1
 178:	8f 93       	push	r24
 17a:	ef 93       	push	r30
 17c:	ff 93       	push	r31
 17e:	e0 91 6c 00 	lds	r30, 0x006C
 182:	8c b1       	in	r24, 0x0c	; 12
 184:	f0 e0       	ldi	r31, 0x00	; 0
 186:	e3 59       	subi	r30, 0x93	; 147
 188:	ff 4f       	sbci	r31, 0xFF	; 255
 18a:	80 83       	st	Z, r24
 18c:	80 91 6d 00 	lds	r24, 0x006D
 190:	83 35       	cpi	r24, 0x53	; 83
 192:	11 f0       	breq	.+4      	; 0x198 <__vector_13+0x2a>
 194:	83 37       	cpi	r24, 0x73	; 115
 196:	41 f5       	brne	.+80     	; 0x1e8 <__vector_13+0x7a>
 198:	80 91 73 00 	lds	r24, 0x0073
 19c:	8d 30       	cpi	r24, 0x0D	; 13
 19e:	21 f5       	brne	.+72     	; 0x1e8 <__vector_13+0x7a>
 1a0:	80 91 6c 00 	lds	r24, 0x006C
 1a4:	86 30       	cpi	r24, 0x06	; 6
 1a6:	d0 f4       	brcc	.+52     	; 0x1dc <__vector_13+0x6e>
 1a8:	1f c0       	rjmp	.+62     	; 0x1e8 <__vector_13+0x7a>
 1aa:	10 92 6d 00 	sts	0x006D, r1
 1ae:	10 92 6e 00 	sts	0x006E, r1
 1b2:	10 92 6f 00 	sts	0x006F, r1
 1b6:	10 92 70 00 	sts	0x0070, r1
 1ba:	10 92 71 00 	sts	0x0071, r1
 1be:	10 92 72 00 	sts	0x0072, r1
 1c2:	10 92 73 00 	sts	0x0073, r1
 1c6:	10 92 6c 00 	sts	0x006C, r1
 1ca:	10 92 6b 00 	sts	0x006B, r1
 1ce:	11 c0       	rjmp	.+34     	; 0x1f2 <__vector_13+0x84>
 1d0:	80 91 6c 00 	lds	r24, 0x006C
 1d4:	8f 5f       	subi	r24, 0xFF	; 255
 1d6:	80 93 6c 00 	sts	0x006C, r24
 1da:	0b c0       	rjmp	.+22     	; 0x1f2 <__vector_13+0x84>
 1dc:	81 e0       	ldi	r24, 0x01	; 1
 1de:	80 93 6b 00 	sts	0x006B, r24
 1e2:	10 92 6c 00 	sts	0x006C, r1
 1e6:	05 c0       	rjmp	.+10     	; 0x1f2 <__vector_13+0x84>
 1e8:	80 91 6c 00 	lds	r24, 0x006C
 1ec:	86 30       	cpi	r24, 0x06	; 6
 1ee:	e8 f6       	brcc	.-70     	; 0x1aa <__vector_13+0x3c>
 1f0:	ef cf       	rjmp	.-34     	; 0x1d0 <__vector_13+0x62>
 1f2:	ff 91       	pop	r31
 1f4:	ef 91       	pop	r30
 1f6:	8f 91       	pop	r24
 1f8:	0f 90       	pop	r0
 1fa:	0f be       	out	0x3f, r0	; 63
 1fc:	0f 90       	pop	r0
 1fe:	1f 90       	pop	r1
 200:	18 95       	reti

00000202 <_GLOBAL__sub_I__ZN4UARTC2Emh>:
 202:	28 e0       	ldi	r18, 0x08	; 8
 204:	40 e8       	ldi	r20, 0x80	; 128
 206:	55 e2       	ldi	r21, 0x25	; 37
 208:	60 e0       	ldi	r22, 0x00	; 0
 20a:	70 e0       	ldi	r23, 0x00	; 0
 20c:	8a e6       	ldi	r24, 0x6A	; 106
 20e:	90 e0       	ldi	r25, 0x00	; 0
 210:	0c 94 85 00 	jmp	0x10a	; 0x10a <_ZN4UARTC1Emh>

00000214 <_GLOBAL__sub_D__ZN4UARTC2Emh>:
 214:	1a b8       	out	0x0a, r1	; 10
 216:	08 95       	ret

00000218 <main>:
 218:	cf 93       	push	r28
 21a:	df 93       	push	r29
 21c:	cd b7       	in	r28, 0x3d	; 61
 21e:	de b7       	in	r29, 0x3e	; 62
 220:	c8 57       	subi	r28, 0x78	; 120
 222:	d1 09       	sbc	r29, r1
 224:	0f b6       	in	r0, 0x3f	; 63
 226:	f8 94       	cli
 228:	de bf       	out	0x3e, r29	; 62
 22a:	0f be       	out	0x3f, r0	; 63
 22c:	cd bf       	out	0x3d, r28	; 61
 22e:	ee 24       	eor	r14, r14
 230:	e3 94       	inc	r14
 232:	f1 2c       	mov	r15, r1
 234:	ec 0e       	add	r14, r28
 236:	fd 1e       	adc	r15, r29
 238:	c7 01       	movw	r24, r14
 23a:	0e 94 9b 01 	call	0x336	; 0x336 <_ZN5X10IFC1Ev>
 23e:	8e 01       	movw	r16, r28
 240:	08 58       	subi	r16, 0x88	; 136
 242:	1f 4f       	sbci	r17, 0xFF	; 255
 244:	28 e0       	ldi	r18, 0x08	; 8
 246:	40 e8       	ldi	r20, 0x80	; 128
 248:	55 e2       	ldi	r21, 0x25	; 37
 24a:	60 e0       	ldi	r22, 0x00	; 0
 24c:	70 e0       	ldi	r23, 0x00	; 0
 24e:	c8 01       	movw	r24, r16
 250:	0e 94 85 00 	call	0x10a	; 0x10a <_ZN4UARTC1Emh>
 254:	c7 01       	movw	r24, r14
 256:	0e 94 a6 01 	call	0x34c	; 0x34c <_ZN5X10IF11getAfventerEv>
 25a:	68 2f       	mov	r22, r24
 25c:	60 5d       	subi	r22, 0xD0	; 208
 25e:	c8 01       	movw	r24, r16
 260:	0e 94 b3 00 	call	0x166	; 0x166 <_ZN4UART8sendCharEc>
 264:	60 e2       	ldi	r22, 0x20	; 32
 266:	c8 01       	movw	r24, r16
 268:	0e 94 b3 00 	call	0x166	; 0x166 <_ZN4UART8sendCharEc>
 26c:	60 e6       	ldi	r22, 0x60	; 96
 26e:	70 e0       	ldi	r23, 0x00	; 0
 270:	c7 01       	movw	r24, r14
 272:	0e 94 8d 02 	call	0x51a	; 0x51a <_ZN5X10IF7aktiverEPc>
 276:	c7 01       	movw	r24, r14
 278:	0e 94 a6 01 	call	0x34c	; 0x34c <_ZN5X10IF11getAfventerEv>
 27c:	68 2f       	mov	r22, r24
 27e:	60 5d       	subi	r22, 0xD0	; 208
 280:	c8 01       	movw	r24, r16
 282:	0e 94 b3 00 	call	0x166	; 0x166 <_ZN4UART8sendCharEc>
 286:	60 e2       	ldi	r22, 0x20	; 32
 288:	c8 01       	movw	r24, r16
 28a:	0e 94 b3 00 	call	0x166	; 0x166 <_ZN4UART8sendCharEc>
 28e:	65 e6       	ldi	r22, 0x65	; 101
 290:	70 e0       	ldi	r23, 0x00	; 0
 292:	c7 01       	movw	r24, r14
 294:	0e 94 6e 02 	call	0x4dc	; 0x4dc <_ZN5X10IF9deaktiverEPc>
 298:	c7 01       	movw	r24, r14
 29a:	0e 94 a6 01 	call	0x34c	; 0x34c <_ZN5X10IF11getAfventerEv>
 29e:	68 2f       	mov	r22, r24
 2a0:	60 5d       	subi	r22, 0xD0	; 208
 2a2:	c8 01       	movw	r24, r16
 2a4:	0e 94 b3 00 	call	0x166	; 0x166 <_ZN4UART8sendCharEc>
 2a8:	6a e0       	ldi	r22, 0x0A	; 10
 2aa:	c8 01       	movw	r24, r16
 2ac:	0e 94 b3 00 	call	0x166	; 0x166 <_ZN4UART8sendCharEc>
 2b0:	c7 01       	movw	r24, r14
 2b2:	0e 94 c3 01 	call	0x386	; 0x386 <_ZN5X10IF6getBitEv>
 2b6:	81 11       	cpse	r24, r1
 2b8:	0a c0       	rjmp	.+20     	; 0x2ce <main+0xb6>
 2ba:	c7 01       	movw	r24, r14
 2bc:	0e 94 a6 01 	call	0x34c	; 0x34c <_ZN5X10IF11getAfventerEv>
 2c0:	88 23       	and	r24, r24
 2c2:	41 f0       	breq	.+16     	; 0x2d4 <main+0xbc>
 2c4:	c7 01       	movw	r24, r14
 2c6:	0e 94 ab 01 	call	0x356	; 0x356 <_ZN5X10IF16decreaseAfventerEv>
 2ca:	6a e0       	ldi	r22, 0x0A	; 10
 2cc:	01 c0       	rjmp	.+2      	; 0x2d0 <main+0xb8>
 2ce:	68 2f       	mov	r22, r24
 2d0:	c8 01       	movw	r24, r16
 2d2:	ec cf       	rjmp	.-40     	; 0x2ac <main+0x94>
 2d4:	1f ef       	ldi	r17, 0xFF	; 255
 2d6:	17 bb       	out	0x17, r17	; 23
 2d8:	8f e7       	ldi	r24, 0x7F	; 127
 2da:	88 bb       	out	0x18, r24	; 24
 2dc:	c7 01       	movw	r24, r14
 2de:	0e 94 b4 01 	call	0x368	; 0x368 <_ZN5X10IF10enableInt0Ev>
 2e2:	2f ef       	ldi	r18, 0xFF	; 255
 2e4:	8f e3       	ldi	r24, 0x3F	; 63
 2e6:	98 e3       	ldi	r25, 0x38	; 56
 2e8:	21 50       	subi	r18, 0x01	; 1
 2ea:	80 40       	sbci	r24, 0x00	; 0
 2ec:	90 40       	sbci	r25, 0x00	; 0
 2ee:	e1 f7       	brne	.-8      	; 0x2e8 <main+0xd0>
 2f0:	00 c0       	rjmp	.+0      	; 0x2f2 <main+0xda>
 2f2:	00 00       	nop
 2f4:	c7 01       	movw	r24, r14
 2f6:	0e 94 bf 01 	call	0x37e	; 0x37e <_ZN5X10IF11disableInt0Ev>
 2fa:	18 bb       	out	0x18, r17	; 24
 2fc:	ff cf       	rjmp	.-2      	; 0x2fc <main+0xe4>

000002fe <__vector_1>:
 2fe:	1f 92       	push	r1
 300:	0f 92       	push	r0
 302:	0f b6       	in	r0, 0x3f	; 63
 304:	0f 92       	push	r0
 306:	11 24       	eor	r1, r1
 308:	2f 93       	push	r18
 30a:	8f 93       	push	r24
 30c:	9f 93       	push	r25
 30e:	18 ba       	out	0x18, r1	; 24
 310:	2f ef       	ldi	r18, 0xFF	; 255
 312:	8f ec       	ldi	r24, 0xCF	; 207
 314:	92 e0       	ldi	r25, 0x02	; 2
 316:	21 50       	subi	r18, 0x01	; 1
 318:	80 40       	sbci	r24, 0x00	; 0
 31a:	90 40       	sbci	r25, 0x00	; 0
 31c:	e1 f7       	brne	.-8      	; 0x316 <__vector_1+0x18>
 31e:	00 c0       	rjmp	.+0      	; 0x320 <__vector_1+0x22>
 320:	00 00       	nop
 322:	8f e7       	ldi	r24, 0x7F	; 127
 324:	88 bb       	out	0x18, r24	; 24
 326:	9f 91       	pop	r25
 328:	8f 91       	pop	r24
 32a:	2f 91       	pop	r18
 32c:	0f 90       	pop	r0
 32e:	0f be       	out	0x3f, r0	; 63
 330:	0f 90       	pop	r0
 332:	1f 90       	pop	r1
 334:	18 95       	reti

00000336 <_ZN5X10IFC1Ev>:
 336:	cf 93       	push	r28
 338:	df 93       	push	r29
 33a:	ec 01       	movw	r28, r24
 33c:	0e 94 57 00 	call	0xae	; 0xae <_ZN10CircBufferC1Ev>
 340:	ca 58       	subi	r28, 0x8A	; 138
 342:	df 4f       	sbci	r29, 0xFF	; 255
 344:	18 82       	st	Y, r1
 346:	df 91       	pop	r29
 348:	cf 91       	pop	r28
 34a:	08 95       	ret

0000034c <_ZN5X10IF11getAfventerEv>:
 34c:	8a 58       	subi	r24, 0x8A	; 138
 34e:	9f 4f       	sbci	r25, 0xFF	; 255
 350:	fc 01       	movw	r30, r24
 352:	80 81       	ld	r24, Z
 354:	08 95       	ret

00000356 <_ZN5X10IF16decreaseAfventerEv>:
 356:	fc 01       	movw	r30, r24
 358:	ea 58       	subi	r30, 0x8A	; 138
 35a:	ff 4f       	sbci	r31, 0xFF	; 255
 35c:	80 81       	ld	r24, Z
 35e:	88 23       	and	r24, r24
 360:	11 f0       	breq	.+4      	; 0x366 <_ZN5X10IF16decreaseAfventerEv+0x10>
 362:	81 50       	subi	r24, 0x01	; 1
 364:	80 83       	st	Z, r24
 366:	08 95       	ret

00000368 <_ZN5X10IF10enableInt0Ev>:
 368:	8b b7       	in	r24, 0x3b	; 59
 36a:	80 64       	ori	r24, 0x40	; 64
 36c:	8b bf       	out	0x3b, r24	; 59
 36e:	85 b7       	in	r24, 0x35	; 53
 370:	81 60       	ori	r24, 0x01	; 1
 372:	85 bf       	out	0x35, r24	; 53
 374:	85 b7       	in	r24, 0x35	; 53
 376:	8d 7f       	andi	r24, 0xFD	; 253
 378:	85 bf       	out	0x35, r24	; 53
 37a:	78 94       	sei
 37c:	08 95       	ret

0000037e <_ZN5X10IF11disableInt0Ev>:
 37e:	8b b7       	in	r24, 0x3b	; 59
 380:	8f 7b       	andi	r24, 0xBF	; 191
 382:	8b bf       	out	0x3b, r24	; 59
 384:	08 95       	ret

00000386 <_ZN5X10IF6getBitEv>:
 386:	0c 94 76 00 	jmp	0xec	; 0xec <_ZN10CircBuffer3getEv>

0000038a <_ZN5X10IF9formatX10EPcc>:
 38a:	fb 01       	movw	r30, r22
 38c:	40 33       	cpi	r20, 0x30	; 48
 38e:	19 f4       	brne	.+6      	; 0x396 <_ZN5X10IF9formatX10EPcc+0xc>
 390:	40 83       	st	Z, r20
 392:	81 e3       	ldi	r24, 0x31	; 49
 394:	04 c0       	rjmp	.+8      	; 0x39e <_ZN5X10IF9formatX10EPcc+0x14>
 396:	41 33       	cpi	r20, 0x31	; 49
 398:	19 f4       	brne	.+6      	; 0x3a0 <_ZN5X10IF9formatX10EPcc+0x16>
 39a:	40 83       	st	Z, r20
 39c:	80 e3       	ldi	r24, 0x30	; 48
 39e:	81 83       	std	Z+1, r24	; 0x01
 3a0:	32 96       	adiw	r30, 0x02	; 2
 3a2:	cf 01       	movw	r24, r30
 3a4:	08 95       	ret

000003a6 <_ZN5X10IF4wrapEPcS0_>:
 3a6:	ff 92       	push	r15
 3a8:	0f 93       	push	r16
 3aa:	1f 93       	push	r17
 3ac:	cf 93       	push	r28
 3ae:	df 93       	push	r29
 3b0:	8c 01       	movw	r16, r24
 3b2:	fa 01       	movw	r30, r20
 3b4:	81 e3       	ldi	r24, 0x31	; 49
 3b6:	80 83       	st	Z, r24
 3b8:	81 83       	std	Z+1, r24	; 0x01
 3ba:	82 83       	std	Z+2, r24	; 0x02
 3bc:	90 e3       	ldi	r25, 0x30	; 48
 3be:	93 83       	std	Z+3, r25	; 0x03
 3c0:	94 83       	std	Z+4, r25	; 0x04
 3c2:	85 83       	std	Z+5, r24	; 0x05
 3c4:	96 83       	std	Z+6, r25	; 0x06
 3c6:	87 83       	std	Z+7, r24	; 0x07
 3c8:	80 87       	std	Z+8, r24	; 0x08
 3ca:	91 87       	std	Z+9, r25	; 0x09
 3cc:	db 01       	movw	r26, r22
 3ce:	8c 91       	ld	r24, X
 3d0:	81 36       	cpi	r24, 0x61	; 97
 3d2:	11 f0       	breq	.+4      	; 0x3d8 <_ZN5X10IF4wrapEPcS0_+0x32>
 3d4:	81 34       	cpi	r24, 0x41	; 65
 3d6:	69 f4       	brne	.+26     	; 0x3f2 <_ZN5X10IF4wrapEPcS0_+0x4c>
 3d8:	80 e3       	ldi	r24, 0x30	; 48
 3da:	82 87       	std	Z+10, r24	; 0x0a
 3dc:	91 e3       	ldi	r25, 0x31	; 49
 3de:	93 87       	std	Z+11, r25	; 0x0b
 3e0:	94 87       	std	Z+12, r25	; 0x0c
 3e2:	85 87       	std	Z+13, r24	; 0x0d
 3e4:	cf 01       	movw	r24, r30
 3e6:	0e 96       	adiw	r24, 0x0e	; 14
 3e8:	eb 01       	movw	r28, r22
 3ea:	21 96       	adiw	r28, 0x01	; 1
 3ec:	24 e0       	ldi	r18, 0x04	; 4
 3ee:	f2 2e       	mov	r15, r18
 3f0:	0c c0       	rjmp	.+24     	; 0x40a <_ZN5X10IF4wrapEPcS0_+0x64>
 3f2:	84 36       	cpi	r24, 0x64	; 100
 3f4:	29 f0       	breq	.+10     	; 0x400 <_ZN5X10IF4wrapEPcS0_+0x5a>
 3f6:	84 34       	cpi	r24, 0x44	; 68
 3f8:	19 f0       	breq	.+6      	; 0x400 <_ZN5X10IF4wrapEPcS0_+0x5a>
 3fa:	ca 01       	movw	r24, r20
 3fc:	0a 96       	adiw	r24, 0x0a	; 10
 3fe:	f4 cf       	rjmp	.-24     	; 0x3e8 <_ZN5X10IF4wrapEPcS0_+0x42>
 400:	91 e3       	ldi	r25, 0x31	; 49
 402:	92 87       	std	Z+10, r25	; 0x0a
 404:	80 e3       	ldi	r24, 0x30	; 48
 406:	83 87       	std	Z+11, r24	; 0x0b
 408:	eb cf       	rjmp	.-42     	; 0x3e0 <_ZN5X10IF4wrapEPcS0_+0x3a>
 40a:	49 91       	ld	r20, Y+
 40c:	bc 01       	movw	r22, r24
 40e:	c8 01       	movw	r24, r16
 410:	0e 94 c5 01 	call	0x38a	; 0x38a <_ZN5X10IF9formatX10EPcc>
 414:	fa 94       	dec	r15
 416:	c9 f7       	brne	.-14     	; 0x40a <_ZN5X10IF4wrapEPcS0_+0x64>
 418:	fc 01       	movw	r30, r24
 41a:	86 e0       	ldi	r24, 0x06	; 6
 41c:	90 e3       	ldi	r25, 0x30	; 48
 41e:	91 93       	st	Z+, r25
 420:	81 50       	subi	r24, 0x01	; 1
 422:	e9 f7       	brne	.-6      	; 0x41e <_ZN5X10IF4wrapEPcS0_+0x78>
 424:	df 91       	pop	r29
 426:	cf 91       	pop	r28
 428:	1f 91       	pop	r17
 42a:	0f 91       	pop	r16
 42c:	ff 90       	pop	r15
 42e:	08 95       	ret

00000430 <_ZN5X10IF12sendKommandoEPc>:
 430:	9f 92       	push	r9
 432:	af 92       	push	r10
 434:	bf 92       	push	r11
 436:	cf 92       	push	r12
 438:	df 92       	push	r13
 43a:	ef 92       	push	r14
 43c:	ff 92       	push	r15
 43e:	0f 93       	push	r16
 440:	1f 93       	push	r17
 442:	cf 93       	push	r28
 444:	df 93       	push	r29
 446:	cd b7       	in	r28, 0x3d	; 61
 448:	de b7       	in	r29, 0x3e	; 62
 44a:	6d 97       	sbiw	r28, 0x1d	; 29
 44c:	0f b6       	in	r0, 0x3f	; 63
 44e:	f8 94       	cli
 450:	de bf       	out	0x3e, r29	; 62
 452:	0f be       	out	0x3f, r0	; 63
 454:	cd bf       	out	0x3d, r28	; 61
 456:	8c 01       	movw	r16, r24
 458:	ee 24       	eor	r14, r14
 45a:	e3 94       	inc	r14
 45c:	f1 2c       	mov	r15, r1
 45e:	ec 0e       	add	r14, r28
 460:	fd 1e       	adc	r15, r29
 462:	a7 01       	movw	r20, r14
 464:	0e 94 d3 01 	call	0x3a6	; 0x3a6 <_ZN5X10IF4wrapEPcS0_>
 468:	42 e0       	ldi	r20, 0x02	; 2
 46a:	b4 2e       	mov	r11, r20
 46c:	9e 2c       	mov	r9, r14
 46e:	af 2c       	mov	r10, r15
 470:	6e 01       	movw	r12, r28
 472:	8d e1       	ldi	r24, 0x1D	; 29
 474:	c8 0e       	add	r12, r24
 476:	d1 1c       	adc	r13, r1
 478:	0c c0       	rjmp	.+24     	; 0x492 <_ZN5X10IF12sendKommandoEPc+0x62>
 47a:	b7 01       	movw	r22, r14
 47c:	c8 01       	movw	r24, r16
 47e:	0e 94 66 00 	call	0xcc	; 0xcc <_ZN10CircBuffer6insertEPc>
 482:	8f ef       	ldi	r24, 0xFF	; 255
 484:	e8 1a       	sub	r14, r24
 486:	f8 0a       	sbc	r15, r24
 488:	ec 14       	cp	r14, r12
 48a:	fd 04       	cpc	r15, r13
 48c:	b1 f7       	brne	.-20     	; 0x47a <_ZN5X10IF12sendKommandoEPc+0x4a>
 48e:	ba 94       	dec	r11
 490:	19 f0       	breq	.+6      	; 0x498 <_ZN5X10IF12sendKommandoEPc+0x68>
 492:	e9 2c       	mov	r14, r9
 494:	fa 2c       	mov	r15, r10
 496:	f1 cf       	rjmp	.-30     	; 0x47a <_ZN5X10IF12sendKommandoEPc+0x4a>
 498:	1d 8e       	std	Y+29, r1	; 0x1d
 49a:	be 01       	movw	r22, r28
 49c:	63 5e       	subi	r22, 0xE3	; 227
 49e:	7f 4f       	sbci	r23, 0xFF	; 255
 4a0:	c8 01       	movw	r24, r16
 4a2:	0e 94 66 00 	call	0xcc	; 0xcc <_ZN10CircBuffer6insertEPc>
 4a6:	f8 01       	movw	r30, r16
 4a8:	ea 58       	subi	r30, 0x8A	; 138
 4aa:	ff 4f       	sbci	r31, 0xFF	; 255
 4ac:	80 81       	ld	r24, Z
 4ae:	8f 5f       	subi	r24, 0xFF	; 255
 4b0:	80 83       	st	Z, r24
 4b2:	c8 01       	movw	r24, r16
 4b4:	0e 94 b4 01 	call	0x368	; 0x368 <_ZN5X10IF10enableInt0Ev>
 4b8:	6d 96       	adiw	r28, 0x1d	; 29
 4ba:	0f b6       	in	r0, 0x3f	; 63
 4bc:	f8 94       	cli
 4be:	de bf       	out	0x3e, r29	; 62
 4c0:	0f be       	out	0x3f, r0	; 63
 4c2:	cd bf       	out	0x3d, r28	; 61
 4c4:	df 91       	pop	r29
 4c6:	cf 91       	pop	r28
 4c8:	1f 91       	pop	r17
 4ca:	0f 91       	pop	r16
 4cc:	ff 90       	pop	r15
 4ce:	ef 90       	pop	r14
 4d0:	df 90       	pop	r13
 4d2:	cf 90       	pop	r12
 4d4:	bf 90       	pop	r11
 4d6:	af 90       	pop	r10
 4d8:	9f 90       	pop	r9
 4da:	08 95       	ret

000004dc <_ZN5X10IF9deaktiverEPc>:
 4dc:	cf 93       	push	r28
 4de:	df 93       	push	r29
 4e0:	00 d0       	rcall	.+0      	; 0x4e2 <_ZN5X10IF9deaktiverEPc+0x6>
 4e2:	00 d0       	rcall	.+0      	; 0x4e4 <_ZN5X10IF9deaktiverEPc+0x8>
 4e4:	1f 92       	push	r1
 4e6:	cd b7       	in	r28, 0x3d	; 61
 4e8:	de b7       	in	r29, 0x3e	; 62
 4ea:	fb 01       	movw	r30, r22
 4ec:	24 e6       	ldi	r18, 0x64	; 100
 4ee:	29 83       	std	Y+1, r18	; 0x01
 4f0:	20 81       	ld	r18, Z
 4f2:	2a 83       	std	Y+2, r18	; 0x02
 4f4:	21 81       	ldd	r18, Z+1	; 0x01
 4f6:	2b 83       	std	Y+3, r18	; 0x03
 4f8:	22 81       	ldd	r18, Z+2	; 0x02
 4fa:	2c 83       	std	Y+4, r18	; 0x04
 4fc:	23 81       	ldd	r18, Z+3	; 0x03
 4fe:	2d 83       	std	Y+5, r18	; 0x05
 500:	be 01       	movw	r22, r28
 502:	6f 5f       	subi	r22, 0xFF	; 255
 504:	7f 4f       	sbci	r23, 0xFF	; 255
 506:	0e 94 18 02 	call	0x430	; 0x430 <_ZN5X10IF12sendKommandoEPc>
 50a:	0f 90       	pop	r0
 50c:	0f 90       	pop	r0
 50e:	0f 90       	pop	r0
 510:	0f 90       	pop	r0
 512:	0f 90       	pop	r0
 514:	df 91       	pop	r29
 516:	cf 91       	pop	r28
 518:	08 95       	ret

0000051a <_ZN5X10IF7aktiverEPc>:
 51a:	cf 93       	push	r28
 51c:	df 93       	push	r29
 51e:	00 d0       	rcall	.+0      	; 0x520 <_ZN5X10IF7aktiverEPc+0x6>
 520:	00 d0       	rcall	.+0      	; 0x522 <_ZN5X10IF7aktiverEPc+0x8>
 522:	1f 92       	push	r1
 524:	cd b7       	in	r28, 0x3d	; 61
 526:	de b7       	in	r29, 0x3e	; 62
 528:	fb 01       	movw	r30, r22
 52a:	21 e6       	ldi	r18, 0x61	; 97
 52c:	29 83       	std	Y+1, r18	; 0x01
 52e:	20 81       	ld	r18, Z
 530:	2a 83       	std	Y+2, r18	; 0x02
 532:	21 81       	ldd	r18, Z+1	; 0x01
 534:	2b 83       	std	Y+3, r18	; 0x03
 536:	22 81       	ldd	r18, Z+2	; 0x02
 538:	2c 83       	std	Y+4, r18	; 0x04
 53a:	23 81       	ldd	r18, Z+3	; 0x03
 53c:	2d 83       	std	Y+5, r18	; 0x05
 53e:	be 01       	movw	r22, r28
 540:	6f 5f       	subi	r22, 0xFF	; 255
 542:	7f 4f       	sbci	r23, 0xFF	; 255
 544:	0e 94 18 02 	call	0x430	; 0x430 <_ZN5X10IF12sendKommandoEPc>
 548:	0f 90       	pop	r0
 54a:	0f 90       	pop	r0
 54c:	0f 90       	pop	r0
 54e:	0f 90       	pop	r0
 550:	0f 90       	pop	r0
 552:	df 91       	pop	r29
 554:	cf 91       	pop	r28
 556:	08 95       	ret

00000558 <_GLOBAL__sub_I__ZN5X10IFC2Ev>:
 558:	84 e7       	ldi	r24, 0x74	; 116
 55a:	90 e0       	ldi	r25, 0x00	; 0
 55c:	0c 94 9b 01 	jmp	0x336	; 0x336 <_ZN5X10IFC1Ev>

00000560 <__udivmodqi4>:
 560:	99 1b       	sub	r25, r25
 562:	79 e0       	ldi	r23, 0x09	; 9
 564:	04 c0       	rjmp	.+8      	; 0x56e <__udivmodqi4_ep>

00000566 <__udivmodqi4_loop>:
 566:	99 1f       	adc	r25, r25
 568:	96 17       	cp	r25, r22
 56a:	08 f0       	brcs	.+2      	; 0x56e <__udivmodqi4_ep>
 56c:	96 1b       	sub	r25, r22

0000056e <__udivmodqi4_ep>:
 56e:	88 1f       	adc	r24, r24
 570:	7a 95       	dec	r23
 572:	c9 f7       	brne	.-14     	; 0x566 <__udivmodqi4_loop>
 574:	80 95       	com	r24
 576:	08 95       	ret

00000578 <__udivmodsi4>:
 578:	a1 e2       	ldi	r26, 0x21	; 33
 57a:	1a 2e       	mov	r1, r26
 57c:	aa 1b       	sub	r26, r26
 57e:	bb 1b       	sub	r27, r27
 580:	fd 01       	movw	r30, r26
 582:	0d c0       	rjmp	.+26     	; 0x59e <__udivmodsi4_ep>

00000584 <__udivmodsi4_loop>:
 584:	aa 1f       	adc	r26, r26
 586:	bb 1f       	adc	r27, r27
 588:	ee 1f       	adc	r30, r30
 58a:	ff 1f       	adc	r31, r31
 58c:	a2 17       	cp	r26, r18
 58e:	b3 07       	cpc	r27, r19
 590:	e4 07       	cpc	r30, r20
 592:	f5 07       	cpc	r31, r21
 594:	20 f0       	brcs	.+8      	; 0x59e <__udivmodsi4_ep>
 596:	a2 1b       	sub	r26, r18
 598:	b3 0b       	sbc	r27, r19
 59a:	e4 0b       	sbc	r30, r20
 59c:	f5 0b       	sbc	r31, r21

0000059e <__udivmodsi4_ep>:
 59e:	66 1f       	adc	r22, r22
 5a0:	77 1f       	adc	r23, r23
 5a2:	88 1f       	adc	r24, r24
 5a4:	99 1f       	adc	r25, r25
 5a6:	1a 94       	dec	r1
 5a8:	69 f7       	brne	.-38     	; 0x584 <__udivmodsi4_loop>
 5aa:	60 95       	com	r22
 5ac:	70 95       	com	r23
 5ae:	80 95       	com	r24
 5b0:	90 95       	com	r25
 5b2:	9b 01       	movw	r18, r22
 5b4:	ac 01       	movw	r20, r24
 5b6:	bd 01       	movw	r22, r26
 5b8:	cf 01       	movw	r24, r30
 5ba:	08 95       	ret

000005bc <__tablejump2__>:
 5bc:	ee 0f       	add	r30, r30
 5be:	ff 1f       	adc	r31, r31

000005c0 <__tablejump__>:
 5c0:	05 90       	lpm	r0, Z+
 5c2:	f4 91       	lpm	r31, Z
 5c4:	e0 2d       	mov	r30, r0
 5c6:	09 94       	ijmp

000005c8 <__do_global_dtors>:
 5c8:	10 e0       	ldi	r17, 0x00	; 0
 5ca:	c8 e5       	ldi	r28, 0x58	; 88
 5cc:	d0 e0       	ldi	r29, 0x00	; 0
 5ce:	04 c0       	rjmp	.+8      	; 0x5d8 <__do_global_dtors+0x10>
 5d0:	fe 01       	movw	r30, r28
 5d2:	0e 94 e0 02 	call	0x5c0	; 0x5c0 <__tablejump__>
 5d6:	22 96       	adiw	r28, 0x02	; 2
 5d8:	ca 35       	cpi	r28, 0x5A	; 90
 5da:	d1 07       	cpc	r29, r17
 5dc:	c9 f7       	brne	.-14     	; 0x5d0 <__do_global_dtors+0x8>
 5de:	f8 94       	cli

000005e0 <__stop_program>:
 5e0:	ff cf       	rjmp	.-2      	; 0x5e0 <__stop_program>
