
PC RS232IF Test program.elf:     file format elf32-avr

Sections:
Idx Name          Size      VMA       LMA       File off  Algn
  0 .text         00000404  00000000  00000000  00000094  2**1
                  CONTENTS, ALLOC, LOAD, READONLY, CODE
  1 .data         00000012  00800060  00000404  00000498  2**0
                  CONTENTS, ALLOC, LOAD, DATA
  2 .bss          0000000a  00800072  00800072  000004aa  2**0
                  ALLOC
  3 .stab         000006cc  00000000  00000000  000004ac  2**2
                  CONTENTS, READONLY, DEBUGGING
  4 .stabstr      00000097  00000000  00000000  00000b78  2**0
                  CONTENTS, READONLY, DEBUGGING
  5 .comment      0000002f  00000000  00000000  00000c0f  2**0
                  CONTENTS, READONLY

Disassembly of section .text:

00000000 <__vectors>:
   0:	0c 94 2c 00 	jmp	0x58	; 0x58 <__dtors_end>
   4:	0c 94 54 00 	jmp	0xa8	; 0xa8 <__bad_interrupt>
   8:	0c 94 54 00 	jmp	0xa8	; 0xa8 <__bad_interrupt>
   c:	0c 94 54 00 	jmp	0xa8	; 0xa8 <__bad_interrupt>
  10:	0c 94 54 00 	jmp	0xa8	; 0xa8 <__bad_interrupt>
  14:	0c 94 54 00 	jmp	0xa8	; 0xa8 <__bad_interrupt>
  18:	0c 94 54 00 	jmp	0xa8	; 0xa8 <__bad_interrupt>
  1c:	0c 94 54 00 	jmp	0xa8	; 0xa8 <__bad_interrupt>
  20:	0c 94 54 00 	jmp	0xa8	; 0xa8 <__bad_interrupt>
  24:	0c 94 54 00 	jmp	0xa8	; 0xa8 <__bad_interrupt>
  28:	0c 94 54 00 	jmp	0xa8	; 0xa8 <__bad_interrupt>
  2c:	0c 94 54 00 	jmp	0xa8	; 0xa8 <__bad_interrupt>
  30:	0c 94 54 00 	jmp	0xa8	; 0xa8 <__bad_interrupt>
  34:	0c 94 78 01 	jmp	0x2f0	; 0x2f0 <__vector_13>
  38:	0c 94 54 00 	jmp	0xa8	; 0xa8 <__bad_interrupt>
  3c:	0c 94 54 00 	jmp	0xa8	; 0xa8 <__bad_interrupt>
  40:	0c 94 54 00 	jmp	0xa8	; 0xa8 <__bad_interrupt>
  44:	0c 94 54 00 	jmp	0xa8	; 0xa8 <__bad_interrupt>
  48:	0c 94 54 00 	jmp	0xa8	; 0xa8 <__bad_interrupt>
  4c:	0c 94 54 00 	jmp	0xa8	; 0xa8 <__bad_interrupt>
  50:	0c 94 54 00 	jmp	0xa8	; 0xa8 <__bad_interrupt>

00000054 <__ctors_start>:
  54:	c2 01       	movw	r24, r4

00000056 <__ctors_end>:
  56:	cb 01       	movw	r24, r22

00000058 <__dtors_end>:
  58:	11 24       	eor	r1, r1
  5a:	1f be       	out	0x3f, r1	; 63
  5c:	cf e5       	ldi	r28, 0x5F	; 95
  5e:	d8 e0       	ldi	r29, 0x08	; 8
  60:	de bf       	out	0x3e, r29	; 62
  62:	cd bf       	out	0x3d, r28	; 61

00000064 <__do_copy_data>:
  64:	10 e0       	ldi	r17, 0x00	; 0
  66:	a0 e6       	ldi	r26, 0x60	; 96
  68:	b0 e0       	ldi	r27, 0x00	; 0
  6a:	e4 e0       	ldi	r30, 0x04	; 4
  6c:	f4 e0       	ldi	r31, 0x04	; 4
  6e:	02 c0       	rjmp	.+4      	; 0x74 <__do_copy_data+0x10>
  70:	05 90       	lpm	r0, Z+
  72:	0d 92       	st	X+, r0
  74:	a2 37       	cpi	r26, 0x72	; 114
  76:	b1 07       	cpc	r27, r17
  78:	d9 f7       	brne	.-10     	; 0x70 <__do_copy_data+0xc>

0000007a <__do_clear_bss>:
  7a:	20 e0       	ldi	r18, 0x00	; 0
  7c:	a2 e7       	ldi	r26, 0x72	; 114
  7e:	b0 e0       	ldi	r27, 0x00	; 0
  80:	01 c0       	rjmp	.+2      	; 0x84 <.do_clear_bss_start>

00000082 <.do_clear_bss_loop>:
  82:	1d 92       	st	X+, r1

00000084 <.do_clear_bss_start>:
  84:	ac 37       	cpi	r26, 0x7C	; 124
  86:	b2 07       	cpc	r27, r18
  88:	e1 f7       	brne	.-8      	; 0x82 <.do_clear_bss_loop>

0000008a <__do_global_ctors>:
  8a:	10 e0       	ldi	r17, 0x00	; 0
  8c:	c6 e5       	ldi	r28, 0x56	; 86
  8e:	d0 e0       	ldi	r29, 0x00	; 0
  90:	04 c0       	rjmp	.+8      	; 0x9a <__do_global_ctors+0x10>
  92:	22 97       	sbiw	r28, 0x02	; 2
  94:	fe 01       	movw	r30, r28
  96:	0e 94 f1 01 	call	0x3e2	; 0x3e2 <__tablejump__>
  9a:	c4 35       	cpi	r28, 0x54	; 84
  9c:	d1 07       	cpc	r29, r17
  9e:	c9 f7       	brne	.-14     	; 0x92 <__do_global_ctors+0x8>
  a0:	0e 94 56 00 	call	0xac	; 0xac <main>
  a4:	0c 94 f5 01 	jmp	0x3ea	; 0x3ea <__do_global_dtors>

000000a8 <__bad_interrupt>:
  a8:	0c 94 00 00 	jmp	0	; 0x0 <__vectors>

000000ac <main>:
  ac:	cf 93       	push	r28
  ae:	df 93       	push	r29
  b0:	1f 92       	push	r1
  b2:	cd b7       	in	r28, 0x3d	; 61
  b4:	de b7       	in	r29, 0x3e	; 62
  b6:	1a ba       	out	0x1a, r1	; 26
  b8:	8e 01       	movw	r16, r28
  ba:	0f 5f       	subi	r16, 0xFF	; 255
  bc:	1f 4f       	sbci	r17, 0xFF	; 255
  be:	c8 01       	movw	r24, r16
  c0:	0e 94 92 00 	call	0x124	; 0x124 <_ZN7RS232IFC1Ev>
  c4:	89 b3       	in	r24, 0x19	; 25
  c6:	8e 3f       	cpi	r24, 0xFE	; 254
  c8:	61 f4       	brne	.+24     	; 0xe2 <main+0x36>
  ca:	c8 01       	movw	r24, r16
  cc:	0e 94 b1 00 	call	0x162	; 0x162 <_ZN7RS232IF7adviserEv>
  d0:	2f ef       	ldi	r18, 0xFF	; 255
  d2:	8f e3       	ldi	r24, 0x3F	; 63
  d4:	9b e0       	ldi	r25, 0x0B	; 11
  d6:	21 50       	subi	r18, 0x01	; 1
  d8:	80 40       	sbci	r24, 0x00	; 0
  da:	90 40       	sbci	r25, 0x00	; 0
  dc:	e1 f7       	brne	.-8      	; 0xd6 <main+0x2a>
  de:	00 c0       	rjmp	.+0      	; 0xe0 <main+0x34>
  e0:	00 00       	nop
  e2:	89 b3       	in	r24, 0x19	; 25
  e4:	8d 3f       	cpi	r24, 0xFD	; 253
  e6:	69 f4       	brne	.+26     	; 0x102 <main+0x56>
  e8:	61 e0       	ldi	r22, 0x01	; 1
  ea:	c8 01       	movw	r24, r16
  ec:	0e 94 41 01 	call	0x282	; 0x282 <_ZN7RS232IF11loginStatusEb>
  f0:	2f ef       	ldi	r18, 0xFF	; 255
  f2:	8f e3       	ldi	r24, 0x3F	; 63
  f4:	9b e0       	ldi	r25, 0x0B	; 11
  f6:	21 50       	subi	r18, 0x01	; 1
  f8:	80 40       	sbci	r24, 0x00	; 0
  fa:	90 40       	sbci	r25, 0x00	; 0
  fc:	e1 f7       	brne	.-8      	; 0xf6 <main+0x4a>
  fe:	00 c0       	rjmp	.+0      	; 0x100 <main+0x54>
 100:	00 00       	nop
 102:	89 b3       	in	r24, 0x19	; 25
 104:	8b 3f       	cpi	r24, 0xFB	; 251
 106:	f1 f6       	brne	.-68     	; 0xc4 <main+0x18>
 108:	60 e0       	ldi	r22, 0x00	; 0
 10a:	c8 01       	movw	r24, r16
 10c:	0e 94 41 01 	call	0x282	; 0x282 <_ZN7RS232IF11loginStatusEb>
 110:	2f ef       	ldi	r18, 0xFF	; 255
 112:	8f e3       	ldi	r24, 0x3F	; 63
 114:	9b e0       	ldi	r25, 0x0B	; 11
 116:	21 50       	subi	r18, 0x01	; 1
 118:	80 40       	sbci	r24, 0x00	; 0
 11a:	90 40       	sbci	r25, 0x00	; 0
 11c:	e1 f7       	brne	.-8      	; 0x116 <main+0x6a>
 11e:	00 c0       	rjmp	.+0      	; 0x120 <main+0x74>
 120:	00 00       	nop
 122:	d0 cf       	rjmp	.-96     	; 0xc4 <main+0x18>

00000124 <_ZN7RS232IFC1Ev>:
 124:	08 95       	ret

00000126 <_ZN7RS232IF7wrapperEPKcPc>:
 126:	fa 01       	movw	r30, r20
 128:	83 e5       	ldi	r24, 0x53	; 83
 12a:	81 93       	st	Z+, r24
 12c:	db 01       	movw	r26, r22
 12e:	80 e0       	ldi	r24, 0x00	; 0
 130:	9d 91       	ld	r25, X+
 132:	91 93       	st	Z+, r25
 134:	8f 5f       	subi	r24, 0xFF	; 255
 136:	85 30       	cpi	r24, 0x05	; 5
 138:	d9 f7       	brne	.-10     	; 0x130 <_ZN7RS232IF7wrapperEPKcPc+0xa>
 13a:	8d e0       	ldi	r24, 0x0D	; 13
 13c:	fa 01       	movw	r30, r20
 13e:	86 83       	std	Z+6, r24	; 0x06
 140:	08 95       	ret

00000142 <_ZN7RS232IF12sendKommandoEPc>:
 142:	1f 93       	push	r17
 144:	cf 93       	push	r28
 146:	df 93       	push	r29
 148:	eb 01       	movw	r28, r22
 14a:	17 e0       	ldi	r17, 0x07	; 7
 14c:	69 91       	ld	r22, Y+
 14e:	82 e7       	ldi	r24, 0x72	; 114
 150:	90 e0       	ldi	r25, 0x00	; 0
 152:	0e 94 74 01 	call	0x2e8	; 0x2e8 <_ZN4UART8sendCharEc>
 156:	11 50       	subi	r17, 0x01	; 1
 158:	c9 f7       	brne	.-14     	; 0x14c <_ZN7RS232IF12sendKommandoEPc+0xa>
 15a:	df 91       	pop	r29
 15c:	cf 91       	pop	r28
 15e:	1f 91       	pop	r17
 160:	08 95       	ret

00000162 <_ZN7RS232IF7adviserEv>:
 162:	0f 93       	push	r16
 164:	1f 93       	push	r17
 166:	cf 93       	push	r28
 168:	df 93       	push	r29
 16a:	cd b7       	in	r28, 0x3d	; 61
 16c:	de b7       	in	r29, 0x3e	; 62
 16e:	2d 97       	sbiw	r28, 0x0d	; 13
 170:	0f b6       	in	r0, 0x3f	; 63
 172:	f8 94       	cli
 174:	de bf       	out	0x3e, r29	; 62
 176:	0f be       	out	0x3f, r0	; 63
 178:	cd bf       	out	0x3d, r28	; 61
 17a:	8c 01       	movw	r16, r24
 17c:	86 e0       	ldi	r24, 0x06	; 6
 17e:	e0 e6       	ldi	r30, 0x60	; 96
 180:	f0 e0       	ldi	r31, 0x00	; 0
 182:	de 01       	movw	r26, r28
 184:	18 96       	adiw	r26, 0x08	; 8
 186:	01 90       	ld	r0, Z+
 188:	0d 92       	st	X+, r0
 18a:	8a 95       	dec	r24
 18c:	e1 f7       	brne	.-8      	; 0x186 <_ZN7RS232IF7adviserEv+0x24>
 18e:	ae 01       	movw	r20, r28
 190:	4f 5f       	subi	r20, 0xFF	; 255
 192:	5f 4f       	sbci	r21, 0xFF	; 255
 194:	be 01       	movw	r22, r28
 196:	68 5f       	subi	r22, 0xF8	; 248
 198:	7f 4f       	sbci	r23, 0xFF	; 255
 19a:	c8 01       	movw	r24, r16
 19c:	0e 94 93 00 	call	0x126	; 0x126 <_ZN7RS232IF7wrapperEPKcPc>
 1a0:	be 01       	movw	r22, r28
 1a2:	6f 5f       	subi	r22, 0xFF	; 255
 1a4:	7f 4f       	sbci	r23, 0xFF	; 255
 1a6:	c8 01       	movw	r24, r16
 1a8:	0e 94 a1 00 	call	0x142	; 0x142 <_ZN7RS232IF12sendKommandoEPc>
 1ac:	2d 96       	adiw	r28, 0x0d	; 13
 1ae:	0f b6       	in	r0, 0x3f	; 63
 1b0:	f8 94       	cli
 1b2:	de bf       	out	0x3e, r29	; 62
 1b4:	0f be       	out	0x3f, r0	; 63
 1b6:	cd bf       	out	0x3d, r28	; 61
 1b8:	df 91       	pop	r29
 1ba:	cf 91       	pop	r28
 1bc:	1f 91       	pop	r17
 1be:	0f 91       	pop	r16
 1c0:	08 95       	ret

000001c2 <_ZN7RS232IF10loginFalseEv>:
 1c2:	0f 93       	push	r16
 1c4:	1f 93       	push	r17
 1c6:	cf 93       	push	r28
 1c8:	df 93       	push	r29
 1ca:	cd b7       	in	r28, 0x3d	; 61
 1cc:	de b7       	in	r29, 0x3e	; 62
 1ce:	2d 97       	sbiw	r28, 0x0d	; 13
 1d0:	0f b6       	in	r0, 0x3f	; 63
 1d2:	f8 94       	cli
 1d4:	de bf       	out	0x3e, r29	; 62
 1d6:	0f be       	out	0x3f, r0	; 63
 1d8:	cd bf       	out	0x3d, r28	; 61
 1da:	8c 01       	movw	r16, r24
 1dc:	86 e0       	ldi	r24, 0x06	; 6
 1de:	e6 e6       	ldi	r30, 0x66	; 102
 1e0:	f0 e0       	ldi	r31, 0x00	; 0
 1e2:	de 01       	movw	r26, r28
 1e4:	18 96       	adiw	r26, 0x08	; 8
 1e6:	01 90       	ld	r0, Z+
 1e8:	0d 92       	st	X+, r0
 1ea:	8a 95       	dec	r24
 1ec:	e1 f7       	brne	.-8      	; 0x1e6 <_ZN7RS232IF10loginFalseEv+0x24>
 1ee:	ae 01       	movw	r20, r28
 1f0:	4f 5f       	subi	r20, 0xFF	; 255
 1f2:	5f 4f       	sbci	r21, 0xFF	; 255
 1f4:	be 01       	movw	r22, r28
 1f6:	68 5f       	subi	r22, 0xF8	; 248
 1f8:	7f 4f       	sbci	r23, 0xFF	; 255
 1fa:	c8 01       	movw	r24, r16
 1fc:	0e 94 93 00 	call	0x126	; 0x126 <_ZN7RS232IF7wrapperEPKcPc>
 200:	be 01       	movw	r22, r28
 202:	6f 5f       	subi	r22, 0xFF	; 255
 204:	7f 4f       	sbci	r23, 0xFF	; 255
 206:	c8 01       	movw	r24, r16
 208:	0e 94 a1 00 	call	0x142	; 0x142 <_ZN7RS232IF12sendKommandoEPc>
 20c:	2d 96       	adiw	r28, 0x0d	; 13
 20e:	0f b6       	in	r0, 0x3f	; 63
 210:	f8 94       	cli
 212:	de bf       	out	0x3e, r29	; 62
 214:	0f be       	out	0x3f, r0	; 63
 216:	cd bf       	out	0x3d, r28	; 61
 218:	df 91       	pop	r29
 21a:	cf 91       	pop	r28
 21c:	1f 91       	pop	r17
 21e:	0f 91       	pop	r16
 220:	08 95       	ret

00000222 <_ZN7RS232IF9loginTrueEv>:
 222:	0f 93       	push	r16
 224:	1f 93       	push	r17
 226:	cf 93       	push	r28
 228:	df 93       	push	r29
 22a:	cd b7       	in	r28, 0x3d	; 61
 22c:	de b7       	in	r29, 0x3e	; 62
 22e:	2d 97       	sbiw	r28, 0x0d	; 13
 230:	0f b6       	in	r0, 0x3f	; 63
 232:	f8 94       	cli
 234:	de bf       	out	0x3e, r29	; 62
 236:	0f be       	out	0x3f, r0	; 63
 238:	cd bf       	out	0x3d, r28	; 61
 23a:	8c 01       	movw	r16, r24
 23c:	86 e0       	ldi	r24, 0x06	; 6
 23e:	ec e6       	ldi	r30, 0x6C	; 108
 240:	f0 e0       	ldi	r31, 0x00	; 0
 242:	de 01       	movw	r26, r28
 244:	18 96       	adiw	r26, 0x08	; 8
 246:	01 90       	ld	r0, Z+
 248:	0d 92       	st	X+, r0
 24a:	8a 95       	dec	r24
 24c:	e1 f7       	brne	.-8      	; 0x246 <_ZN7RS232IF9loginTrueEv+0x24>
 24e:	ae 01       	movw	r20, r28
 250:	4f 5f       	subi	r20, 0xFF	; 255
 252:	5f 4f       	sbci	r21, 0xFF	; 255
 254:	be 01       	movw	r22, r28
 256:	68 5f       	subi	r22, 0xF8	; 248
 258:	7f 4f       	sbci	r23, 0xFF	; 255
 25a:	c8 01       	movw	r24, r16
 25c:	0e 94 93 00 	call	0x126	; 0x126 <_ZN7RS232IF7wrapperEPKcPc>
 260:	be 01       	movw	r22, r28
 262:	6f 5f       	subi	r22, 0xFF	; 255
 264:	7f 4f       	sbci	r23, 0xFF	; 255
 266:	c8 01       	movw	r24, r16
 268:	0e 94 a1 00 	call	0x142	; 0x142 <_ZN7RS232IF12sendKommandoEPc>
 26c:	2d 96       	adiw	r28, 0x0d	; 13
 26e:	0f b6       	in	r0, 0x3f	; 63
 270:	f8 94       	cli
 272:	de bf       	out	0x3e, r29	; 62
 274:	0f be       	out	0x3f, r0	; 63
 276:	cd bf       	out	0x3d, r28	; 61
 278:	df 91       	pop	r29
 27a:	cf 91       	pop	r28
 27c:	1f 91       	pop	r17
 27e:	0f 91       	pop	r16
 280:	08 95       	ret

00000282 <_ZN7RS232IF11loginStatusEb>:
 282:	61 11       	cpse	r22, r1
 284:	0c 94 11 01 	jmp	0x222	; 0x222 <_ZN7RS232IF9loginTrueEv>
 288:	0c 94 e1 00 	jmp	0x1c2	; 0x1c2 <_ZN7RS232IF10loginFalseEv>

0000028c <_ZN4UARTC1Emh>:
 28c:	db 01       	movw	r26, r22
 28e:	ca 01       	movw	r24, r20
 290:	8e 56       	subi	r24, 0x6E	; 110
 292:	91 09       	sbc	r25, r1
 294:	a1 09       	sbc	r26, r1
 296:	b1 09       	sbc	r27, r1
 298:	83 39       	cpi	r24, 0x93	; 147
 29a:	91 4c       	sbci	r25, 0xC1	; 193
 29c:	a1 40       	sbci	r26, 0x01	; 1
 29e:	b1 05       	cpc	r27, r1
 2a0:	10 f5       	brcc	.+68     	; 0x2e6 <_ZN4UARTC1Emh+0x5a>
 2a2:	25 50       	subi	r18, 0x05	; 5
 2a4:	25 30       	cpi	r18, 0x05	; 5
 2a6:	f8 f4       	brcc	.+62     	; 0x2e6 <_ZN4UARTC1Emh+0x5a>
 2a8:	9a 01       	movw	r18, r20
 2aa:	ab 01       	movw	r20, r22
 2ac:	84 e0       	ldi	r24, 0x04	; 4
 2ae:	22 0f       	add	r18, r18
 2b0:	33 1f       	adc	r19, r19
 2b2:	44 1f       	adc	r20, r20
 2b4:	55 1f       	adc	r21, r21
 2b6:	8a 95       	dec	r24
 2b8:	d1 f7       	brne	.-12     	; 0x2ae <_ZN4UARTC1Emh+0x22>
 2ba:	60 e0       	ldi	r22, 0x00	; 0
 2bc:	70 e4       	ldi	r23, 0x40	; 64
 2be:	88 e3       	ldi	r24, 0x38	; 56
 2c0:	90 e0       	ldi	r25, 0x00	; 0
 2c2:	0e 94 cd 01 	call	0x39a	; 0x39a <__udivmodsi4>
 2c6:	21 50       	subi	r18, 0x01	; 1
 2c8:	31 09       	sbc	r19, r1
 2ca:	41 09       	sbc	r20, r1
 2cc:	51 09       	sbc	r21, r1
 2ce:	bb 27       	eor	r27, r27
 2d0:	57 fd       	sbrc	r21, 7
 2d2:	ba 95       	dec	r27
 2d4:	a5 2f       	mov	r26, r21
 2d6:	94 2f       	mov	r25, r20
 2d8:	83 2f       	mov	r24, r19
 2da:	80 bd       	out	0x20, r24	; 32
 2dc:	29 b9       	out	0x09, r18	; 9
 2de:	8c e9       	ldi	r24, 0x9C	; 156
 2e0:	8a b9       	out	0x0a, r24	; 10
 2e2:	86 e8       	ldi	r24, 0x86	; 134
 2e4:	80 bd       	out	0x20, r24	; 32
 2e6:	08 95       	ret

000002e8 <_ZN4UART8sendCharEc>:
 2e8:	5d 9b       	sbis	0x0b, 5	; 11
 2ea:	fe cf       	rjmp	.-4      	; 0x2e8 <_ZN4UART8sendCharEc>
 2ec:	6c b9       	out	0x0c, r22	; 12
 2ee:	08 95       	ret

000002f0 <__vector_13>:
 2f0:	1f 92       	push	r1
 2f2:	0f 92       	push	r0
 2f4:	0f b6       	in	r0, 0x3f	; 63
 2f6:	0f 92       	push	r0
 2f8:	11 24       	eor	r1, r1
 2fa:	8f 93       	push	r24
 2fc:	ef 93       	push	r30
 2fe:	ff 93       	push	r31
 300:	e0 91 74 00 	lds	r30, 0x0074
 304:	8c b1       	in	r24, 0x0c	; 12
 306:	f0 e0       	ldi	r31, 0x00	; 0
 308:	eb 58       	subi	r30, 0x8B	; 139
 30a:	ff 4f       	sbci	r31, 0xFF	; 255
 30c:	80 83       	st	Z, r24
 30e:	80 91 75 00 	lds	r24, 0x0075
 312:	83 35       	cpi	r24, 0x53	; 83
 314:	11 f0       	breq	.+4      	; 0x31a <__vector_13+0x2a>
 316:	83 37       	cpi	r24, 0x73	; 115
 318:	41 f5       	brne	.+80     	; 0x36a <__vector_13+0x7a>
 31a:	80 91 7b 00 	lds	r24, 0x007B
 31e:	8d 30       	cpi	r24, 0x0D	; 13
 320:	21 f5       	brne	.+72     	; 0x36a <__vector_13+0x7a>
 322:	80 91 74 00 	lds	r24, 0x0074
 326:	86 30       	cpi	r24, 0x06	; 6
 328:	d0 f4       	brcc	.+52     	; 0x35e <__vector_13+0x6e>
 32a:	1f c0       	rjmp	.+62     	; 0x36a <__vector_13+0x7a>
 32c:	10 92 75 00 	sts	0x0075, r1
 330:	10 92 76 00 	sts	0x0076, r1
 334:	10 92 77 00 	sts	0x0077, r1
 338:	10 92 78 00 	sts	0x0078, r1
 33c:	10 92 79 00 	sts	0x0079, r1
 340:	10 92 7a 00 	sts	0x007A, r1
 344:	10 92 7b 00 	sts	0x007B, r1
 348:	10 92 74 00 	sts	0x0074, r1
 34c:	10 92 73 00 	sts	0x0073, r1
 350:	11 c0       	rjmp	.+34     	; 0x374 <__vector_13+0x84>
 352:	80 91 74 00 	lds	r24, 0x0074
 356:	8f 5f       	subi	r24, 0xFF	; 255
 358:	80 93 74 00 	sts	0x0074, r24
 35c:	0b c0       	rjmp	.+22     	; 0x374 <__vector_13+0x84>
 35e:	81 e0       	ldi	r24, 0x01	; 1
 360:	80 93 73 00 	sts	0x0073, r24
 364:	10 92 74 00 	sts	0x0074, r1
 368:	05 c0       	rjmp	.+10     	; 0x374 <__vector_13+0x84>
 36a:	80 91 74 00 	lds	r24, 0x0074
 36e:	86 30       	cpi	r24, 0x06	; 6
 370:	e8 f6       	brcc	.-70     	; 0x32c <__vector_13+0x3c>
 372:	ef cf       	rjmp	.-34     	; 0x352 <__vector_13+0x62>
 374:	ff 91       	pop	r31
 376:	ef 91       	pop	r30
 378:	8f 91       	pop	r24
 37a:	0f 90       	pop	r0
 37c:	0f be       	out	0x3f, r0	; 63
 37e:	0f 90       	pop	r0
 380:	1f 90       	pop	r1
 382:	18 95       	reti

00000384 <_GLOBAL__sub_I__ZN4UARTC2Emh>:
 384:	28 e0       	ldi	r18, 0x08	; 8
 386:	40 e8       	ldi	r20, 0x80	; 128
 388:	55 e2       	ldi	r21, 0x25	; 37
 38a:	60 e0       	ldi	r22, 0x00	; 0
 38c:	70 e0       	ldi	r23, 0x00	; 0
 38e:	82 e7       	ldi	r24, 0x72	; 114
 390:	90 e0       	ldi	r25, 0x00	; 0
 392:	0c 94 46 01 	jmp	0x28c	; 0x28c <_ZN4UARTC1Emh>

00000396 <_GLOBAL__sub_D__ZN4UARTC2Emh>:
 396:	1a b8       	out	0x0a, r1	; 10
 398:	08 95       	ret

0000039a <__udivmodsi4>:
 39a:	a1 e2       	ldi	r26, 0x21	; 33
 39c:	1a 2e       	mov	r1, r26
 39e:	aa 1b       	sub	r26, r26
 3a0:	bb 1b       	sub	r27, r27
 3a2:	fd 01       	movw	r30, r26
 3a4:	0d c0       	rjmp	.+26     	; 0x3c0 <__udivmodsi4_ep>

000003a6 <__udivmodsi4_loop>:
 3a6:	aa 1f       	adc	r26, r26
 3a8:	bb 1f       	adc	r27, r27
 3aa:	ee 1f       	adc	r30, r30
 3ac:	ff 1f       	adc	r31, r31
 3ae:	a2 17       	cp	r26, r18
 3b0:	b3 07       	cpc	r27, r19
 3b2:	e4 07       	cpc	r30, r20
 3b4:	f5 07       	cpc	r31, r21
 3b6:	20 f0       	brcs	.+8      	; 0x3c0 <__udivmodsi4_ep>
 3b8:	a2 1b       	sub	r26, r18
 3ba:	b3 0b       	sbc	r27, r19
 3bc:	e4 0b       	sbc	r30, r20
 3be:	f5 0b       	sbc	r31, r21

000003c0 <__udivmodsi4_ep>:
 3c0:	66 1f       	adc	r22, r22
 3c2:	77 1f       	adc	r23, r23
 3c4:	88 1f       	adc	r24, r24
 3c6:	99 1f       	adc	r25, r25
 3c8:	1a 94       	dec	r1
 3ca:	69 f7       	brne	.-38     	; 0x3a6 <__udivmodsi4_loop>
 3cc:	60 95       	com	r22
 3ce:	70 95       	com	r23
 3d0:	80 95       	com	r24
 3d2:	90 95       	com	r25
 3d4:	9b 01       	movw	r18, r22
 3d6:	ac 01       	movw	r20, r24
 3d8:	bd 01       	movw	r22, r26
 3da:	cf 01       	movw	r24, r30
 3dc:	08 95       	ret

000003de <__tablejump2__>:
 3de:	ee 0f       	add	r30, r30
 3e0:	ff 1f       	adc	r31, r31

000003e2 <__tablejump__>:
 3e2:	05 90       	lpm	r0, Z+
 3e4:	f4 91       	lpm	r31, Z
 3e6:	e0 2d       	mov	r30, r0
 3e8:	09 94       	ijmp

000003ea <__do_global_dtors>:
 3ea:	10 e0       	ldi	r17, 0x00	; 0
 3ec:	c6 e5       	ldi	r28, 0x56	; 86
 3ee:	d0 e0       	ldi	r29, 0x00	; 0
 3f0:	04 c0       	rjmp	.+8      	; 0x3fa <__do_global_dtors+0x10>
 3f2:	fe 01       	movw	r30, r28
 3f4:	0e 94 f1 01 	call	0x3e2	; 0x3e2 <__tablejump__>
 3f8:	22 96       	adiw	r28, 0x02	; 2
 3fa:	c8 35       	cpi	r28, 0x58	; 88
 3fc:	d1 07       	cpc	r29, r17
 3fe:	c9 f7       	brne	.-14     	; 0x3f2 <__do_global_dtors+0x8>
 400:	f8 94       	cli

00000402 <__stop_program>:
 402:	ff cf       	rjmp	.-2      	; 0x402 <__stop_program>
